target datalayout = "e-m:e-p270:32:32-p271:32:32-p272:64:64-i64:64-i128:128-f80:128-n8:16:32:64-S128"
target triple = "x86_64-unknown-linux-gnu"

%"struct.node::AssertionInfo" = type { ptr, ptr, ptr }
%"class.node::quic::Packet" = type { %"class.node::ReqWrap", ptr, %"class.node::SocketAddress", %"class.std::shared_ptr", %"class.node::BaseObjectPtrImpl" }
%"class.node::ReqWrap" = type { %"class.node::AsyncWrap", %"class.node::ReqWrapBase", ptr, %struct.uv_udp_send_s }
%"class.node::AsyncWrap" = type { %"class.node::BaseObject", i32, i8, double, double }
%"class.node::BaseObject" = type { %"class.node::MemoryRetainer", %"class.v8::Global", ptr, ptr }
%"class.node::MemoryRetainer" = type { ptr }
%"class.v8::Global" = type { %"class.v8::PersistentBase" }
%"class.v8::PersistentBase" = type { %"class.v8::IndirectHandleBase" }
%"class.v8::IndirectHandleBase" = type { ptr }
%"class.node::ReqWrapBase" = type { ptr, %"class.node::ListNode" }
%"class.node::ListNode" = type { ptr, ptr }
%struct.uv_udp_send_s = type { ptr, i32, [6 x ptr], ptr, ptr, %struct.uv__queue, %struct.sockaddr_storage, i32, ptr, i64, ptr, [4 x %struct.uv_buf_t] }
%struct.uv__queue = type { ptr, ptr }
%struct.sockaddr_storage = type { i16, [118 x i8], i64 }
%struct.uv_buf_t = type { ptr, i64 }
%"class.node::SocketAddress" = type { %"class.node::MemoryRetainer", %struct.sockaddr_storage }
%"class.std::shared_ptr" = type { %"class.std::__shared_ptr" }
%"class.std::__shared_ptr" = type { ptr, %"class.std::__shared_count" }
%"class.std::__shared_count" = type { ptr }
%"class.node::BaseObjectPtrImpl" = type { %union.anon }
%union.anon = type { ptr }
%"struct.node::quic::Packet::Data" = type { %"class.node::MemoryRetainer", %"class.node::MaybeStackBuffer", %"class.std::__cxx11::basic_string" }
%"class.node::MaybeStackBuffer" = type { i64, i64, ptr, [1200 x i8] }
%"class.std::__cxx11::basic_string" = type { %"struct.std::__cxx11::basic_string<char>::_Alloc_hider", i64, %union.anon.0 }
%"struct.std::__cxx11::basic_string<char>::_Alloc_hider" = type { ptr }
%union.anon.0 = type { i64, [8 x i8] }
%struct.ngtcp2_vec = type { ptr, i64 }
%"class.node::BaseObjectPtrImpl.290" = type { %union.anon.291 }
%union.anon.291 = type { ptr }
%"struct.node::quic::PathDescriptor" = type { i32, ptr, ptr, ptr, ptr }

@.str.8 = private unnamed_addr constant [38 x i8] c"immediate connection close (endpoint)\00", align 1
@_ZZN4node16MaybeStackBufferIhLm1200EE9SetLengthEmE4args = linkonce_odr dso_local constant %"struct.node::AssertionInfo" { ptr @.str.30, ptr @.str.31, ptr @.str.32 }, comdat, align 8

; Function Attrs: mustprogress nounwind uwtable
define linkonce_odr dso_local noundef ptr @_ZNKSt12__shared_ptrIN4node4quic6Packet4DataELN9__gnu_cxx12_Lock_policyE2EE3getEv(ptr noundef nonnull align 8 dereferenceable(16) %this) #4 comdat align 2 {
entry:
  %this.addr = alloca ptr, align 8
  store ptr %this, ptr %this.addr, align 8
  %this1 = load ptr, ptr %this.addr, align 8
  %_M_ptr = getelementptr inbounds %"class.std::__shared_ptr", ptr %this1, i32 0, i32 0
  %0 = load ptr, ptr %_M_ptr, align 8
  ret ptr %0
}

; Function Attrs: mustprogress nounwind uwtable
define linkonce_odr dso_local noundef i64 @_ZNK4node16MaybeStackBufferIhLm1200EE8capacityEv(ptr noundef nonnull align 8 dereferenceable(1224) %this) #4 comdat align 2 {
entry:
  %this.addr = alloca ptr, align 8
  store ptr %this, ptr %this.addr, align 8
  %this1 = load ptr, ptr %this.addr, align 8
  %capacity_ = getelementptr inbounds %"class.node::MaybeStackBuffer", ptr %this1, i32 0, i32 1
  %0 = load i64, ptr %capacity_, align 8
  ret i64 %0
}

; Function Attrs: mustprogress nounwind uwtable
define linkonce_odr dso_local noundef i64 @_ZNK4node16MaybeStackBufferIhLm1200EE6lengthEv(ptr noundef nonnull align 8 dereferenceable(1224) %this) #4 comdat align 2 {
entry:
  %this.addr = alloca ptr, align 8
  store ptr %this, ptr %this.addr, align 8
  %this1 = load ptr, ptr %this.addr, align 8
  %length_ = getelementptr inbounds %"class.node::MaybeStackBuffer", ptr %this1, i32 0, i32 0
  %0 = load i64, ptr %length_, align 8
  ret i64 %0
}

; Function Attrs: mustprogress nounwind uwtable
define linkonce_odr dso_local noundef ptr @_ZN4node16MaybeStackBufferIhLm1200EE3outEv(ptr noundef nonnull align 8 dereferenceable(1224) %this) #4 comdat align 2 {
entry:
  %this.addr = alloca ptr, align 8
  store ptr %this, ptr %this.addr, align 8
  %this1 = load ptr, ptr %this.addr, align 8
  %buf_ = getelementptr inbounds %"class.node::MaybeStackBuffer", ptr %this1, i32 0, i32 2
  %0 = load ptr, ptr %buf_, align 8
  ret ptr %0
}

; Function Attrs: mustprogress nounwind uwtable
define linkonce_odr dso_local noundef ptr @_ZNKSt19__shared_ptr_accessIN4node4quic6Packet4DataELN9__gnu_cxx12_Lock_policyE2ELb0ELb0EE6_M_getEv(ptr noundef nonnull align 1 dereferenceable(1) %this) #4 comdat align 2 {
entry:
  %this.addr = alloca ptr, align 8
  store ptr %this, ptr %this.addr, align 8
  %this1 = load ptr, ptr %this.addr, align 8
  %call = call noundef ptr @_ZNKSt12__shared_ptrIN4node4quic6Packet4DataELN9__gnu_cxx12_Lock_policyE2EE3getEv(ptr noundef nonnull align 8 dereferenceable(16) %this1) #3
  ret ptr %call
}

; Function Attrs: mustprogress nounwind uwtable
define linkonce_odr dso_local noundef ptr @_ZNK4node17BaseObjectPtrImplINS_4quic6PacketELb0EE15get_base_objectEv(ptr noundef nonnull align 8 dereferenceable(8) %this) #4 comdat align 2 {
entry:
  %this.addr = alloca ptr, align 8
  store ptr %this, ptr %this.addr, align 8
  %this1 = load ptr, ptr %this.addr, align 8
  %data_ = getelementptr inbounds %"class.node::BaseObjectPtrImpl.290", ptr %this1, i32 0, i32 0
  %0 = load ptr, ptr %data_, align 8
  ret ptr %0
}

; Function Attrs: mustprogress nounwind uwtable
define linkonce_odr dso_local void @_ZN4node16MaybeStackBufferIhLm1200EE9SetLengthEm(ptr noundef nonnull align 8 dereferenceable(1224) %this, i64 noundef %length) #4 comdat align 2 {
entry:
  %this.addr = alloca ptr, align 8
  %length.addr = alloca i64, align 8
  store ptr %this, ptr %this.addr, align 8
  store i64 %length, ptr %length.addr, align 8
  %this1 = load ptr, ptr %this.addr, align 8
  br label %do.body

do.body:                                          ; preds = %entry
  %0 = load i64, ptr %length.addr, align 8
  %call = call noundef i64 @_ZNK4node16MaybeStackBufferIhLm1200EE8capacityEv(ptr noundef nonnull align 8 dereferenceable(1224) %this1)
  %cmp = icmp ule i64 %0, %call
  %lnot = xor i1 %cmp, true
  %lnot2 = xor i1 %lnot, true
  %lnot3 = xor i1 %lnot2, true
  br i1 %lnot3, label %if.then, label %if.end

if.then:                                          ; preds = %do.body
  br label %do.body4

do.body4:                                         ; preds = %if.then
  call void @_ZN4node6AssertERKNS_13AssertionInfoE(ptr noundef nonnull align 8 dereferenceable(24) @_ZZN4node16MaybeStackBufferIhLm1200EE9SetLengthEmE4args)
  call void @abort() #14
  unreachable

do.end:                                           ; No predecessors!
  br label %if.end

if.end:                                           ; preds = %do.end, %do.body
  br label %do.end5

do.end5:                                          ; preds = %if.end
  %1 = load i64, ptr %length.addr, align 8
  %length_ = getelementptr inbounds %"class.node::MaybeStackBuffer", ptr %this1, i32 0, i32 0
  store i64 %1, ptr %length_, align 8
  ret void
}

; Function Attrs: mustprogress nounwind uwtable
define linkonce_odr dso_local noundef ptr @_ZNKSt19__shared_ptr_accessIN4node4quic6Packet4DataELN9__gnu_cxx12_Lock_policyE2ELb0ELb0EEptEv(ptr noundef nonnull align 1 dereferenceable(1) %this) #4 comdat align 2 {
entry:
  %this.addr = alloca ptr, align 8
  store ptr %this, ptr %this.addr, align 8
  %this1 = load ptr, ptr %this.addr, align 8
  %call = call noundef ptr @_ZNKSt19__shared_ptr_accessIN4node4quic6Packet4DataELN9__gnu_cxx12_Lock_policyE2ELb0ELb0EE6_M_getEv(ptr noundef nonnull align 1 dereferenceable(1) %this1) #3
  ret ptr %call
}

; Function Attrs: mustprogress nounwind uwtable
define linkonce_odr dso_local { ptr, i64 } @_ZN4node4quic6Packet4Datacv10ngtcp2_vecEv(ptr noundef nonnull align 8 dereferenceable(1264) %this) #4 comdat align 2 {
entry:
  %retval = alloca %struct.ngtcp2_vec, align 8
  %this.addr = alloca ptr, align 8
  store ptr %this, ptr %this.addr, align 8
  %this1 = load ptr, ptr %this.addr, align 8
  %base = getelementptr inbounds %struct.ngtcp2_vec, ptr %retval, i32 0, i32 0
  %data_ = getelementptr inbounds %"struct.node::quic::Packet::Data", ptr %this1, i32 0, i32 1
  %call = call noundef ptr @_ZN4node16MaybeStackBufferIhLm1200EE3outEv(ptr noundef nonnull align 8 dereferenceable(1224) %data_)
  store ptr %call, ptr %base, align 8
  %len = getelementptr inbounds %struct.ngtcp2_vec, ptr %retval, i32 0, i32 1
  %data_2 = getelementptr inbounds %"struct.node::quic::Packet::Data", ptr %this1, i32 0, i32 1
  %call3 = call noundef i64 @_ZNK4node16MaybeStackBufferIhLm1200EE6lengthEv(ptr noundef nonnull align 8 dereferenceable(1224) %data_2)
  store i64 %call3, ptr %len, align 8
  %0 = load { ptr, i64 }, ptr %retval, align 8
  ret { ptr, i64 } %0
}

; Function Attrs: mustprogress nounwind uwtable
define linkonce_odr dso_local noundef nonnull align 8 dereferenceable(1264) ptr @_ZNKSt19__shared_ptr_accessIN4node4quic6Packet4DataELN9__gnu_cxx12_Lock_policyE2ELb0ELb0EEdeEv(ptr noundef nonnull align 1 dereferenceable(1) %this) #4 comdat align 2 {
entry:
  %this.addr = alloca ptr, align 8
  store ptr %this, ptr %this.addr, align 8
  %this1 = load ptr, ptr %this.addr, align 8
  br label %do.body

do.body:                                          ; preds = %entry
  br label %do.end

do.end:                                           ; preds = %do.body
  %call = call noundef ptr @_ZNKSt19__shared_ptr_accessIN4node4quic6Packet4DataELN9__gnu_cxx12_Lock_policyE2ELb0ELb0EE6_M_getEv(ptr noundef nonnull align 1 dereferenceable(1) %this1) #3
  ret ptr %call
}

; Function Attrs: mustprogress nounwind uwtable
define linkonce_odr dso_local noundef zeroext i1 @_ZNKSt12__shared_ptrIN4node4quic6Packet4DataELN9__gnu_cxx12_Lock_policyE2EEcvbEv(ptr noundef nonnull align 8 dereferenceable(16) %this) #4 comdat align 2 {
entry:
  %this.addr = alloca ptr, align 8
  store ptr %this, ptr %this.addr, align 8
  %this1 = load ptr, ptr %this.addr, align 8
  %_M_ptr = getelementptr inbounds %"class.std::__shared_ptr", ptr %this1, i32 0, i32 0
  %0 = load ptr, ptr %_M_ptr, align 8
  %cmp = icmp ne ptr %0, null
  ret i1 %cmp
}

; Function Attrs: mustprogress nounwind uwtable
define linkonce_odr dso_local noundef ptr @_ZNK4node17BaseObjectPtrImplINS_4quic6PacketELb0EE3getEv(ptr noundef nonnull align 8 dereferenceable(8) %this) #4 comdat align 2 {
entry:
  %this.addr = alloca ptr, align 8
  store ptr %this, ptr %this.addr, align 8
  %this1 = load ptr, ptr %this.addr, align 8
  %call = call noundef ptr @_ZNK4node17BaseObjectPtrImplINS_4quic6PacketELb0EE15get_base_objectEv(ptr noundef nonnull align 8 dereferenceable(8) %this1)
  ret ptr %call
}

; Function Attrs: mustprogress nounwind uwtable
define linkonce_odr dso_local void @_ZN4node17BaseObjectPtrImplINS_4quic6PacketELb0EED2Ev(ptr noundef nonnull align 8 dereferenceable(8) %this) unnamed_addr #4 comdat align 2 {
entry:
  %this.addr = alloca ptr, align 8
  store ptr %this, ptr %this.addr, align 8
  %this1 = load ptr, ptr %this.addr, align 8
  %call = call noundef ptr @_ZNK4node17BaseObjectPtrImplINS_4quic6PacketELb0EE3getEv(ptr noundef nonnull align 8 dereferenceable(8) %this1)
  %cmp = icmp ne ptr %call, null
  br i1 %cmp, label %if.then, label %if.end

if.then:                                          ; preds = %entry
  %call2 = call noundef ptr @_ZNK4node17BaseObjectPtrImplINS_4quic6PacketELb0EE3getEv(ptr noundef nonnull align 8 dereferenceable(8) %this1)
  call void @_ZN4node10BaseObject17decrease_refcountEv(ptr noundef nonnull align 8 dereferenceable(32) %call2)
  br label %if.end

if.end:                                           ; preds = %if.then, %entry
  ret void
}

; Function Attrs: mustprogress nounwind uwtable
define linkonce_odr dso_local void @_ZN4node17BaseObjectPtrImplINS_4quic6PacketELb0EEC2EOS3_(ptr noundef nonnull align 8 dereferenceable(8) %this, ptr noundef nonnull align 8 dereferenceable(8) %other) unnamed_addr #4 comdat align 2 {
entry:
  %this.addr = alloca ptr, align 8
  %other.addr = alloca ptr, align 8
  store ptr %this, ptr %this.addr, align 8
  store ptr %other, ptr %other.addr, align 8
  %this1 = load ptr, ptr %this.addr, align 8
  %data_ = getelementptr inbounds %"class.node::BaseObjectPtrImpl.290", ptr %this1, i32 0, i32 0
  %0 = load ptr, ptr %other.addr, align 8
  %data_2 = getelementptr inbounds %"class.node::BaseObjectPtrImpl.290", ptr %0, i32 0, i32 0
  call void @llvm.memcpy.p0.p0.i64(ptr align 8 %data_, ptr align 8 %data_2, i64 8, i1 false)
  %1 = load ptr, ptr %other.addr, align 8
  %data_3 = getelementptr inbounds %"class.node::BaseObjectPtrImpl.290", ptr %1, i32 0, i32 0
  store ptr null, ptr %data_3, align 8
  ret void
}

; Function Attrs: mustprogress nounwind uwtable
define dso_local void @_ZN4node4quic6Packet8TruncateEm(ptr noundef nonnull align 8 dereferenceable(576) %this, i64 noundef %len) #4 align 2 {
entry:
  %this.addr = alloca ptr, align 8
  %len.addr = alloca i64, align 8
  store ptr %this, ptr %this.addr, align 8
  store i64 %len, ptr %len.addr, align 8
  %this1 = load ptr, ptr %this.addr, align 8
  %data_ = getelementptr inbounds %"class.node::quic::Packet", ptr %this1, i32 0, i32 3
  %call = call noundef ptr @_ZNKSt19__shared_ptr_accessIN4node4quic6Packet4DataELN9__gnu_cxx12_Lock_policyE2ELb0ELb0EEptEv(ptr noundef nonnull align 1 dereferenceable(1) %data_) #3
  %data_2 = getelementptr inbounds %"struct.node::quic::Packet::Data", ptr %call, i32 0, i32 1
  %0 = load i64, ptr %len.addr, align 8
  call void @_ZN4node16MaybeStackBufferIhLm1200EE9SetLengthEm(ptr noundef nonnull align 8 dereferenceable(1224) %data_2, i64 noundef %0)
  ret void
}

; Function Attrs: mustprogress nounwind uwtable
define linkonce_odr dso_local void @_ZN4node17BaseObjectPtrImplINS_4quic6PacketELb0EEC2Ev(ptr noundef nonnull align 8 dereferenceable(8) %this) unnamed_addr #4 comdat align 2 {
entry:
  %this.addr = alloca ptr, align 8
  store ptr %this, ptr %this.addr, align 8
  %this1 = load ptr, ptr %this.addr, align 8
  %data_2 = getelementptr inbounds %"class.node::BaseObjectPtrImpl.290", ptr %this1, i32 0, i32 0
  store ptr null, ptr %data_2, align 8
  ret void
}

; Function Attrs: mustprogress nounwind uwtable
define linkonce_odr dso_local noundef ptr @_ZNK4node17BaseObjectPtrImplINS_4quic6PacketELb0EEptEv(ptr noundef nonnull align 8 dereferenceable(8) %this) #4 comdat align 2 {
entry:
  %this.addr = alloca ptr, align 8
  store ptr %this, ptr %this.addr, align 8
  %this1 = load ptr, ptr %this.addr, align 8
  %call = call noundef ptr @_ZNK4node17BaseObjectPtrImplINS_4quic6PacketELb0EE3getEv(ptr noundef nonnull align 8 dereferenceable(8) %this1)
  ret ptr %call
}

; Function Attrs: mustprogress nounwind uwtable
define dso_local { ptr, i64 } @_ZNK4node4quic6Packetcv10ngtcp2_vecEv(ptr noundef nonnull align 8 dereferenceable(576) %this) #4 align 2 {
entry:
  %retval = alloca %struct.ngtcp2_vec, align 8
  %this.addr = alloca ptr, align 8
  store ptr %this, ptr %this.addr, align 8
  %this1 = load ptr, ptr %this.addr, align 8
  %data_ = getelementptr inbounds %"class.node::quic::Packet", ptr %this1, i32 0, i32 3
  %call = call noundef zeroext i1 @_ZNKSt12__shared_ptrIN4node4quic6Packet4DataELN9__gnu_cxx12_Lock_policyE2EEcvbEv(ptr noundef nonnull align 8 dereferenceable(16) %data_) #3
  br i1 %call, label %cond.false, label %cond.true

cond.true:                                        ; preds = %entry
  %base = getelementptr inbounds %struct.ngtcp2_vec, ptr %retval, i32 0, i32 0
  store ptr null, ptr %base, align 8
  %len = getelementptr inbounds %struct.ngtcp2_vec, ptr %retval, i32 0, i32 1
  store i64 0, ptr %len, align 8
  br label %cond.end

cond.false:                                       ; preds = %entry
  %data_2 = getelementptr inbounds %"class.node::quic::Packet", ptr %this1, i32 0, i32 3
  %call3 = call noundef nonnull align 8 dereferenceable(1264) ptr @_ZNKSt19__shared_ptr_accessIN4node4quic6Packet4DataELN9__gnu_cxx12_Lock_policyE2ELb0ELb0EEdeEv(ptr noundef nonnull align 1 dereferenceable(1) %data_2) #3
  %call4 = call { ptr, i64 } @_ZN4node4quic6Packet4Datacv10ngtcp2_vecEv(ptr noundef nonnull align 8 dereferenceable(1264) %call3)
  %0 = getelementptr inbounds { ptr, i64 }, ptr %retval, i32 0, i32 0
  %1 = extractvalue { ptr, i64 } %call4, 0
  store ptr %1, ptr %0, align 8
  %2 = getelementptr inbounds { ptr, i64 }, ptr %retval, i32 0, i32 1
  %3 = extractvalue { ptr, i64 } %call4, 1
  store i64 %3, ptr %2, align 8
  br label %cond.end

cond.end:                                         ; preds = %cond.false, %cond.true
  %4 = load { ptr, i64 }, ptr %retval, align 8
  ret { ptr, i64 } %4
}

; Function Attrs: mustprogress nounwind uwtable
define linkonce_odr dso_local noundef nonnull align 8 dereferenceable(576) ptr @_ZNK4node17BaseObjectPtrImplINS_4quic6PacketELb0EEdeEv(ptr noundef nonnull align 8 dereferenceable(8) %this) #4 comdat align 2 {
entry:
  %this.addr = alloca ptr, align 8
  store ptr %this, ptr %this.addr, align 8
  %this1 = load ptr, ptr %this.addr, align 8
  %call = call noundef ptr @_ZNK4node17BaseObjectPtrImplINS_4quic6PacketELb0EE3getEv(ptr noundef nonnull align 8 dereferenceable(8) %this1)
  ret ptr %call
}

; Function Attrs: mustprogress nounwind uwtable
define dso_local void @_ZN4node4quic6Packet36CreateImmediateConnectionClosePacketEPNS_11EnvironmentEPNS1_8ListenerERKNS0_14PathDescriptorERKNS0_9QuicErrorE(ptr noalias sret(%"class.node::BaseObjectPtrImpl.290") align 8 %agg.result, ptr noundef %env, ptr noundef %listener, ptr noundef nonnull align 8 dereferenceable(40) %path_descriptor, ptr noundef nonnull align 8 dereferenceable(88) %reason) #4 align 2 {
entry:
  %result.ptr = alloca ptr, align 8
  %env.addr = alloca ptr, align 8
  %listener.addr = alloca ptr, align 8
  %path_descriptor.addr = alloca ptr, align 8
  %reason.addr = alloca ptr, align 8
  %packet = alloca %"class.node::BaseObjectPtrImpl.290", align 8
  %vec = alloca %struct.ngtcp2_vec, align 8
  %nwrite = alloca i64, align 8
  %cleanup.dest.slot = alloca i32, align 4
  store ptr %agg.result, ptr %result.ptr, align 8
  store ptr %env, ptr %env.addr, align 8
  store ptr %listener, ptr %listener.addr, align 8
  store ptr %path_descriptor, ptr %path_descriptor.addr, align 8
  store ptr %reason, ptr %reason.addr, align 8
  %0 = load ptr, ptr %env.addr, align 8
  %1 = load ptr, ptr %listener.addr, align 8
  %2 = load ptr, ptr %path_descriptor.addr, align 8
  %remote_address = getelementptr inbounds %"struct.node::quic::PathDescriptor", ptr %2, i32 0, i32 4
  %3 = load ptr, ptr %remote_address, align 8
  call void @_ZN4node4quic6Packet6CreateEPNS_11EnvironmentEPNS1_8ListenerERKNS_13SocketAddressEmPKc(ptr sret(%"class.node::BaseObjectPtrImpl.290") align 8 %packet, ptr noundef %0, ptr noundef %1, ptr noundef nonnull align 8 dereferenceable(136) %3, i64 noundef 1200, ptr noundef @.str.8)
  %call = call noundef nonnull align 8 dereferenceable(576) ptr @_ZNK4node17BaseObjectPtrImplINS_4quic6PacketELb0EEdeEv(ptr noundef nonnull align 8 dereferenceable(8) %packet)
  %call1 = call { ptr, i64 } @_ZNK4node4quic6Packetcv10ngtcp2_vecEv(ptr noundef nonnull align 8 dereferenceable(576) %call)
  %4 = getelementptr inbounds { ptr, i64 }, ptr %vec, i32 0, i32 0
  %5 = extractvalue { ptr, i64 } %call1, 0
  store ptr %5, ptr %4, align 8
  %6 = getelementptr inbounds { ptr, i64 }, ptr %vec, i32 0, i32 1
  %7 = extractvalue { ptr, i64 } %call1, 1
  store i64 %7, ptr %6, align 8
  %base = getelementptr inbounds %struct.ngtcp2_vec, ptr %vec, i32 0, i32 0
  %8 = load ptr, ptr %base, align 8
  %len = getelementptr inbounds %struct.ngtcp2_vec, ptr %vec, i32 0, i32 1
  %9 = load i64, ptr %len, align 8
  %10 = load ptr, ptr %path_descriptor.addr, align 8
  %version = getelementptr inbounds %"struct.node::quic::PathDescriptor", ptr %10, i32 0, i32 0
  %11 = load i32, ptr %version, align 8
  %12 = load ptr, ptr %path_descriptor.addr, align 8
  %dcid = getelementptr inbounds %"struct.node::quic::PathDescriptor", ptr %12, i32 0, i32 1
  %13 = load ptr, ptr %dcid, align 8
  %call2 = call noundef ptr @_ZNK4node4quic3CIDcvPK10ngtcp2_cidEv(ptr noundef nonnull align 8 dereferenceable(48) %13)
  %14 = load ptr, ptr %path_descriptor.addr, align 8
  %scid = getelementptr inbounds %"struct.node::quic::PathDescriptor", ptr %14, i32 0, i32 2
  %15 = load ptr, ptr %scid, align 8
  %call3 = call noundef ptr @_ZNK4node4quic3CIDcvPK10ngtcp2_cidEv(ptr noundef nonnull align 8 dereferenceable(48) %15)
  %16 = load ptr, ptr %reason.addr, align 8
  %call4 = call noundef i64 @_ZNK4node4quic9QuicError4codeEv(ptr noundef nonnull align 8 dereferenceable(88) %16)
  %call5 = call i64 @ngtcp2_crypto_write_connection_close(ptr noundef %8, i64 noundef %9, i32 noundef %11, ptr noundef %call2, ptr noundef %call3, i64 noundef %call4, ptr noundef null, i64 noundef 0)
  store i64 %call5, ptr %nwrite, align 8
  %17 = load i64, ptr %nwrite, align 8
  %cmp = icmp sle i64 %17, 0
  br i1 %cmp, label %if.then, label %if.end

if.then:                                          ; preds = %entry
  %call6 = call noundef ptr @_ZNK4node17BaseObjectPtrImplINS_4quic6PacketELb0EEptEv(ptr noundef nonnull align 8 dereferenceable(8) %packet)
  call void @_ZN4node4quic6Packet4DoneEi(ptr noundef nonnull align 8 dereferenceable(576) %call6, i32 noundef -125)
  call void @_ZN4node17BaseObjectPtrImplINS_4quic6PacketELb0EEC2Ev(ptr noundef nonnull align 8 dereferenceable(8) %agg.result)
  store i32 1, ptr %cleanup.dest.slot, align 4
  br label %cleanup

if.end:                                           ; preds = %entry
  %call7 = call noundef ptr @_ZNK4node17BaseObjectPtrImplINS_4quic6PacketELb0EEptEv(ptr noundef nonnull align 8 dereferenceable(8) %packet)
  %18 = load i64, ptr %nwrite, align 8
  call void @_ZN4node4quic6Packet8TruncateEm(ptr noundef nonnull align 8 dereferenceable(576) %call7, i64 noundef %18)
  call void @_ZN4node17BaseObjectPtrImplINS_4quic6PacketELb0EEC2EOS3_(ptr noundef nonnull align 8 dereferenceable(8) %agg.result, ptr noundef nonnull align 8 dereferenceable(8) %packet)
  store i32 1, ptr %cleanup.dest.slot, align 4
  br label %cleanup

cleanup:                                          ; preds = %if.end, %if.then
  call void @_ZN4node17BaseObjectPtrImplINS_4quic6PacketELb0EED2Ev(ptr noundef nonnull align 8 dereferenceable(8) %packet) #3
  ret void
}