; Function Attrs: mustprogress nounwind uwtable
define dso_local void @_ZN4node4quic6Packet36CreateImmediateConnectionClosePacketEPNS_11EnvironmentEPNS1_8ListenerERKNS0_14PathDescriptorERKNS0_9QuicErrorE(ptr noalias nocapture writeonly sret(%"class.node::BaseObjectPtrImpl.290") align 8 %agg.result, ptr noundef %env, ptr noundef %listener, ptr nocapture noundef nonnull readonly align 8 dereferenceable(40) %path_descriptor, ptr noundef nonnull align 8 dereferenceable(88) %reason) local_unnamed_addr #6 align 2 {
entry:
  %packet = alloca %"class.node::BaseObjectPtrImpl.290", align 8
  %remote_address = getelementptr inbounds i8, ptr %path_descriptor, i64 32
  %0 = load ptr, ptr %remote_address, align 8
  call void @_ZN4node4quic6Packet6CreateEPNS_11EnvironmentEPNS1_8ListenerERKNS_13SocketAddressEmPKc(ptr nonnull sret(%"class.node::BaseObjectPtrImpl.290") align 8 %packet, ptr noundef %env, ptr noundef %listener, ptr noundef nonnull align 8 dereferenceable(136) %0, i64 noundef 1200, ptr noundef nonnull @.str.8)
  %1 = load ptr, ptr %packet, align 8
  %data_.i = getelementptr inbounds i8, ptr %1, i64 552
  %2 = load ptr, ptr %data_.i, align 8
  %cmp.i.not.i = icmp eq ptr %2, null
  %3 = ptrtoint ptr %1 to i64
  br i1 %cmp.i.not.i, label %_ZNK4node4quic6Packetcv10ngtcp2_vecEv.exit, label %cond.false.i

cond.false.i:                                     ; preds = %entry
  %data_.i.i = getelementptr inbounds i8, ptr %2, i64 8
  %buf_.i.i.i = getelementptr inbounds i8, ptr %2, i64 24
  %4 = load ptr, ptr %buf_.i.i.i, align 8
  %5 = load i64, ptr %data_.i.i, align 8
  br label %_ZNK4node4quic6Packetcv10ngtcp2_vecEv.exit

_ZNK4node4quic6Packetcv10ngtcp2_vecEv.exit:       ; preds = %entry, %cond.false.i
  %retval.sroa.0.0.i = phi ptr [ %4, %cond.false.i ], [ null, %entry ]
  %retval.sroa.3.0.i = phi i64 [ %5, %cond.false.i ], [ 0, %entry ]
  %6 = load i32, ptr %path_descriptor, align 8
  %dcid = getelementptr inbounds i8, ptr %path_descriptor, i64 8
  %7 = load ptr, ptr %dcid, align 8
  %call2 = tail call noundef ptr @_ZNK4node4quic3CIDcvPK10ngtcp2_cidEv(ptr noundef nonnull align 8 dereferenceable(48) %7) #22
  %scid = getelementptr inbounds i8, ptr %path_descriptor, i64 16
  %8 = load ptr, ptr %scid, align 8
  %call3 = tail call noundef ptr @_ZNK4node4quic3CIDcvPK10ngtcp2_cidEv(ptr noundef nonnull align 8 dereferenceable(48) %8) #22
  %call4 = tail call noundef i64 @_ZNK4node4quic9QuicError4codeEv(ptr noundef nonnull align 8 dereferenceable(88) %reason) #22
  %call5 = tail call i64 @ngtcp2_crypto_write_connection_close(ptr noundef %retval.sroa.0.0.i, i64 noundef %retval.sroa.3.0.i, i32 noundef %6, ptr noundef %call2, ptr noundef %call3, i64 noundef %call4, ptr noundef null, i64 noundef 0) #22
  %cmp = icmp slt i64 %call5, 1
  br i1 %cmp, label %if.then.i, label %if.end

if.end:                                           ; preds = %_ZNK4node4quic6Packetcv10ngtcp2_vecEv.exit
  %9 = load ptr, ptr %data_.i, align 8
  %capacity_.i.i.i = getelementptr inbounds i8, ptr %9, i64 16
  %10 = load i64, ptr %capacity_.i.i.i, align 8
  %cmp.not.i.i = icmp ult i64 %10, %call5
  br i1 %cmp.not.i.i, label %do.body4.i.i, label %cleanup.thread

do.body4.i.i:                                     ; preds = %if.end
  tail call void @_ZN4node6AssertERKNS_13AssertionInfoE(ptr noundef nonnull align 8 dereferenceable(24) @_ZZN4node16MaybeStackBufferIhLm1200EE9SetLengthEmE4args) #22
  tail call void @abort() #23
  unreachable

cleanup.thread:                                   ; preds = %if.end
  %data_2.i = getelementptr inbounds i8, ptr %9, i64 8
  store i64 %call5, ptr %data_2.i, align 8
  store i64 %3, ptr %agg.result, align 8
  br label %_ZN4node17BaseObjectPtrImplINS_4quic6PacketELb0EED2Ev.exit

if.then.i:                                        ; preds = %_ZNK4node4quic6Packetcv10ngtcp2_vecEv.exit
  tail call void @_ZN4node4quic6Packet4DoneEi(ptr noundef nonnull align 8 dereferenceable(576) %1, i32 noundef -125)
  store ptr null, ptr %agg.result, align 8
  tail call void @_ZN4node10BaseObject17decrease_refcountEv(ptr noundef nonnull align 8 dereferenceable(32) %1) #22
  br label %_ZN4node17BaseObjectPtrImplINS_4quic6PacketELb0EED2Ev.exit

_ZN4node17BaseObjectPtrImplINS_4quic6PacketELb0EED2Ev.exit: ; preds = %cleanup.thread, %if.then.i
  ret void
}